; Function Attrs: nounwind uwtable
define dso_local zeroext i1 @is_user_min_admin_level_locked(ptr noundef %0, i32 noundef %1, i32 noundef %2) local_unnamed_addr #0 {
  %4 = load i32, ptr getelementptr inbounds nuw (i8, ptr @slurm_conf, i64 1152), align 8
  %5 = icmp ne i32 %1, %4
  %6 = icmp ne i32 %1, 0
  %or.cond.i = and i1 %6, %5
  br i1 %or.cond.i, label %7, label %_is_user_min_admin_level.exit

7:                                                ; preds = %3
  %8 = tail call i32 @assoc_mgr_get_admin_level_locked(ptr noundef %0, i32 noundef %1) #12
  %9 = icmp uge i32 %8, %2
  br label %_is_user_min_admin_level.exit

_is_user_min_admin_level.exit:                    ; preds = %3, %7
  %.010.i = phi i1 [ %9, %7 ], [ true, %3 ]
  ret i1 %.010.i
}